target datalayout = "e-m:e-p270:32:32-p271:32:32-p272:64:64-i64:64-i128:128-f80:128-n8:16:32:64-S128"
target triple = "x86_64-pc-linux-gnu"

%struct.CFF_ParserRec_ = type { ptr, ptr, ptr, ptr, ptr, ptr, i32, i32, ptr, i16, i16 }

; Function Attrs: nounwind uwtable
define internal i64 @cff_parse_integer(ptr noundef %0, ptr noundef %1) #0 {
  %3 = alloca ptr, align 8
  %4 = alloca ptr, align 8
  %5 = alloca ptr, align 8
  %6 = alloca i32, align 4
  %7 = alloca i64, align 8
  store ptr %0, ptr %3, align 8
  store ptr %1, ptr %4, align 8
  %8 = load ptr, ptr %3, align 8
  store ptr %8, ptr %5, align 8
  %9 = load ptr, ptr %5, align 8
  %10 = getelementptr inbounds i8, ptr %9, i32 1
  store ptr %10, ptr %5, align 8
  %11 = load i8, ptr %9, align 1
  %12 = zext i8 %11 to i32
  store i32 %12, ptr %6, align 4
  store i64 0, ptr %7, align 8
  %13 = load i32, ptr %6, align 4
  %14 = icmp eq i32 %13, 28
  br i1 %14, label %15, label %39

15:                                               ; preds = %2
  %16 = load ptr, ptr %5, align 8
  %17 = getelementptr inbounds i8, ptr %16, i64 2
  %18 = load ptr, ptr %4, align 8
  %19 = icmp ugt ptr %17, %18
  br i1 %19, label %20, label %25

20:                                               ; preds = %15
  %21 = load ptr, ptr %4, align 8
  %22 = load ptr, ptr %5, align 8
  %23 = icmp uge ptr %21, %22
  br i1 %23, label %24, label %25

24:                                               ; preds = %20
  br label %134

25:                                               ; preds = %20, %15
  %26 = load ptr, ptr %5, align 8
  %27 = getelementptr inbounds i8, ptr %26, i64 0
  %28 = load i8, ptr %27, align 1
  %29 = zext i8 %28 to i16
  %30 = zext i16 %29 to i32
  %31 = shl i32 %30, 8
  %32 = load ptr, ptr %5, align 8
  %33 = getelementptr inbounds i8, ptr %32, i64 1
  %34 = load i8, ptr %33, align 1
  %35 = zext i8 %34 to i32
  %36 = or i32 %31, %35
  %37 = trunc i32 %36 to i16
  %38 = sext i16 %37 to i64
  store i64 %38, ptr %7, align 8
  br label %131

39:                                               ; preds = %2
  %40 = load i32, ptr %6, align 4
  %41 = icmp eq i32 %40, 29
  br i1 %41, label %42, label %75

42:                                               ; preds = %39
  %43 = load ptr, ptr %5, align 8
  %44 = getelementptr inbounds i8, ptr %43, i64 4
  %45 = load ptr, ptr %4, align 8
  %46 = icmp ugt ptr %44, %45
  br i1 %46, label %47, label %52

47:                                               ; preds = %42
  %48 = load ptr, ptr %4, align 8
  %49 = load ptr, ptr %5, align 8
  %50 = icmp uge ptr %48, %49
  br i1 %50, label %51, label %52

51:                                               ; preds = %47
  br label %134

52:                                               ; preds = %47, %42
  %53 = load ptr, ptr %5, align 8
  %54 = getelementptr inbounds i8, ptr %53, i64 0
  %55 = load i8, ptr %54, align 1
  %56 = zext i8 %55 to i64
  %57 = shl i64 %56, 24
  %58 = load ptr, ptr %5, align 8
  %59 = getelementptr inbounds i8, ptr %58, i64 1
  %60 = load i8, ptr %59, align 1
  %61 = zext i8 %60 to i64
  %62 = shl i64 %61, 16
  %63 = or i64 %57, %62
  %64 = load ptr, ptr %5, align 8
  %65 = getelementptr inbounds i8, ptr %64, i64 2
  %66 = load i8, ptr %65, align 1
  %67 = zext i8 %66 to i64
  %68 = shl i64 %67, 8
  %69 = or i64 %63, %68
  %70 = load ptr, ptr %5, align 8
  %71 = getelementptr inbounds i8, ptr %70, i64 3
  %72 = load i8, ptr %71, align 1
  %73 = zext i8 %72 to i64
  %74 = or i64 %69, %73
  store i64 %74, ptr %7, align 8
  br label %130

75:                                               ; preds = %39
  %76 = load i32, ptr %6, align 4
  %77 = icmp slt i32 %76, 247
  br i1 %77, label %78, label %82

78:                                               ; preds = %75
  %79 = load i32, ptr %6, align 4
  %80 = sub nsw i32 %79, 139
  %81 = sext i32 %80 to i64
  store i64 %81, ptr %7, align 8
  br label %129

82:                                               ; preds = %75
  %83 = load i32, ptr %6, align 4
  %84 = icmp slt i32 %83, 251
  br i1 %84, label %85, label %106

85:                                               ; preds = %82
  %86 = load ptr, ptr %5, align 8
  %87 = getelementptr inbounds i8, ptr %86, i64 1
  %88 = load ptr, ptr %4, align 8
  %89 = icmp ugt ptr %87, %88
  br i1 %89, label %90, label %95

90:                                               ; preds = %85
  %91 = load ptr, ptr %4, align 8
  %92 = load ptr, ptr %5, align 8
  %93 = icmp uge ptr %91, %92
  br i1 %93, label %94, label %95

94:                                               ; preds = %90
  br label %134

95:                                               ; preds = %90, %85
  %96 = load i32, ptr %6, align 4
  %97 = sub nsw i32 %96, 247
  %98 = mul nsw i32 %97, 256
  %99 = load ptr, ptr %5, align 8
  %100 = getelementptr inbounds i8, ptr %99, i64 0
  %101 = load i8, ptr %100, align 1
  %102 = zext i8 %101 to i32
  %103 = add nsw i32 %98, %102
  %104 = add nsw i32 %103, 108
  %105 = sext i32 %104 to i64
  store i64 %105, ptr %7, align 8
  br label %128

106:                                              ; preds = %82
  %107 = load ptr, ptr %5, align 8
  %108 = getelementptr inbounds i8, ptr %107, i64 1
  %109 = load ptr, ptr %4, align 8
  %110 = icmp ugt ptr %108, %109
  br i1 %110, label %111, label %116

111:                                              ; preds = %106
  %112 = load ptr, ptr %4, align 8
  %113 = load ptr, ptr %5, align 8
  %114 = icmp uge ptr %112, %113
  br i1 %114, label %115, label %116

115:                                              ; preds = %111
  br label %134

116:                                              ; preds = %111, %106
  %117 = load i32, ptr %6, align 4
  %118 = sub nsw i32 %117, 251
  %119 = sub nsw i32 0, %118
  %120 = mul nsw i32 %119, 256
  %121 = load ptr, ptr %5, align 8
  %122 = getelementptr inbounds i8, ptr %121, i64 0
  %123 = load i8, ptr %122, align 1
  %124 = zext i8 %123 to i32
  %125 = sub nsw i32 %120, %124
  %126 = sub nsw i32 %125, 108
  %127 = sext i32 %126 to i64
  store i64 %127, ptr %7, align 8
  br label %128

128:                                              ; preds = %116, %95
  br label %129

129:                                              ; preds = %128, %78
  br label %130

130:                                              ; preds = %129, %52
  br label %131

131:                                              ; preds = %130, %25
  br label %132

132:                                              ; preds = %136, %131
  %133 = load i64, ptr %7, align 8
  ret i64 %133

134:                                              ; preds = %115, %94, %51, %24
  store i64 0, ptr %7, align 8
  br label %135

135:                                              ; preds = %134
  br label %136

136:                                              ; preds = %135
  br label %132
}

; Function Attrs: nounwind uwtable
define internal i64 @cff_parse_num(ptr noundef %0, ptr noundef %1) #0 {
  %3 = alloca i64, align 8
  %4 = alloca ptr, align 8
  %5 = alloca ptr, align 8
  store ptr %0, ptr %4, align 8
  store ptr %1, ptr %5, align 8
  %6 = load ptr, ptr %5, align 8
  %7 = load ptr, ptr %6, align 8
  %8 = load i8, ptr %7, align 1
  %9 = zext i8 %8 to i32
  %10 = icmp eq i32 %9, 30
  br i1 %10, label %11, label %19

11:                                               ; preds = %2
  %12 = load ptr, ptr %5, align 8
  %13 = load ptr, ptr %12, align 8
  %14 = load ptr, ptr %4, align 8
  %15 = getelementptr inbounds %struct.CFF_ParserRec_, ptr %14, i32 0, i32 2
  %16 = load ptr, ptr %15, align 8
  %17 = call i64 @cff_parse_real(ptr noundef %13, ptr noundef %16, i64 noundef 0, ptr noundef null)
  %18 = ashr i64 %17, 16
  store i64 %18, ptr %3, align 8
  br label %59

19:                                               ; preds = %2
  %20 = load ptr, ptr %5, align 8
  %21 = load ptr, ptr %20, align 8
  %22 = load i8, ptr %21, align 1
  %23 = zext i8 %22 to i32
  %24 = icmp eq i32 %23, 255
  br i1 %24, label %25, label %52

25:                                               ; preds = %19
  %26 = load ptr, ptr %5, align 8
  %27 = getelementptr inbounds ptr, ptr %26, i64 0
  %28 = load ptr, ptr %27, align 8
  %29 = getelementptr inbounds i8, ptr %28, i64 1
  %30 = load i8, ptr %29, align 1
  %31 = zext i8 %30 to i32
  %32 = shl i32 %31, 16
  %33 = load ptr, ptr %5, align 8
  %34 = getelementptr inbounds ptr, ptr %33, i64 0
  %35 = load ptr, ptr %34, align 8
  %36 = getelementptr inbounds i8, ptr %35, i64 2
  %37 = load i8, ptr %36, align 1
  %38 = zext i8 %37 to i32
  %39 = shl i32 %38, 8
  %40 = or i32 %32, %39
  %41 = load ptr, ptr %5, align 8
  %42 = getelementptr inbounds ptr, ptr %41, i64 0
  %43 = load ptr, ptr %42, align 8
  %44 = getelementptr inbounds i8, ptr %43, i64 3
  %45 = load i8, ptr %44, align 1
  %46 = zext i8 %45 to i32
  %47 = or i32 %40, %46
  %48 = add i32 %47, 128
  %49 = lshr i32 %48, 8
  %50 = trunc i32 %49 to i16
  %51 = sext i16 %50 to i64
  store i64 %51, ptr %3, align 8
  br label %59

52:                                               ; preds = %19
  %53 = load ptr, ptr %5, align 8
  %54 = load ptr, ptr %53, align 8
  %55 = load ptr, ptr %4, align 8
  %56 = getelementptr inbounds %struct.CFF_ParserRec_, ptr %55, i32 0, i32 2
  %57 = load ptr, ptr %56, align 8
  %58 = call i64 @cff_parse_integer(ptr noundef %54, ptr noundef %57)
  store i64 %58, ptr %3, align 8
  br label %59

59:                                               ; preds = %52, %25, %11
  %60 = load i64, ptr %3, align 8
  ret i64 %60
}