; Function Attrs: nounwind uwtable
define internal fastcc i64 @cff_parse_num(ptr nocapture noundef readonly %0, ptr %.0.val) unnamed_addr #4 {
  %2 = load i8, ptr %.0.val, align 1
  switch i8 %2, label %25 [
    i8 30, label %3
    i8 -1, label %8
  ]

3:                                                ; preds = %1
  %4 = getelementptr inbounds i8, ptr %0, i64 16
  %5 = load ptr, ptr %4, align 8
  %6 = tail call fastcc i64 @cff_parse_real(ptr noundef nonnull %.0.val, ptr noundef %5, i64 noundef 0, ptr noundef null)
  %7 = ashr i64 %6, 16
  br label %cff_parse_integer.exit

8:                                                ; preds = %1
  %9 = getelementptr inbounds i8, ptr %.0.val, i64 1
  %10 = load i8, ptr %9, align 1
  %11 = zext i8 %10 to i64
  %12 = shl nuw nsw i64 %11, 16
  %13 = getelementptr inbounds i8, ptr %.0.val, i64 2
  %14 = load i8, ptr %13, align 1
  %15 = zext i8 %14 to i64
  %16 = shl nuw nsw i64 %15, 8
  %17 = or disjoint i64 %16, %12
  %18 = getelementptr inbounds i8, ptr %.0.val, i64 3
  %19 = load i8, ptr %18, align 1
  %20 = zext i8 %19 to i64
  %21 = or disjoint i64 %17, %20
  %22 = shl nuw i64 %21, 40
  %23 = add i64 %22, 140737488355328
  %24 = ashr i64 %23, 48
  br label %cff_parse_integer.exit

25:                                               ; preds = %1
  %26 = getelementptr inbounds i8, ptr %0, i64 16
  %27 = load ptr, ptr %26, align 8
  %28 = getelementptr inbounds i8, ptr %.0.val, i64 1
  %29 = zext i8 %2 to i32
  switch i8 %2, label %63 [
    i8 28, label %30
    i8 29, label %42
  ]

30:                                               ; preds = %25
  %31 = getelementptr inbounds i8, ptr %.0.val, i64 3
  %32 = icmp ule ptr %31, %27
  %.not37.i = icmp ugt ptr %28, %27
  %or.cond.i = select i1 %32, i1 true, i1 %.not37.i
  br i1 %or.cond.i, label %33, label %cff_parse_integer.exit

33:                                               ; preds = %30
  %34 = load i8, ptr %28, align 1
  %35 = zext i8 %34 to i16
  %36 = shl nuw i16 %35, 8
  %37 = getelementptr inbounds i8, ptr %.0.val, i64 2
  %38 = load i8, ptr %37, align 1
  %39 = zext i8 %38 to i16
  %40 = or disjoint i16 %36, %39
  %41 = sext i16 %40 to i64
  br label %cff_parse_integer.exit

42:                                               ; preds = %25
  %43 = getelementptr inbounds i8, ptr %.0.val, i64 5
  %44 = icmp ule ptr %43, %27
  %.not36.i = icmp ugt ptr %28, %27
  %or.cond38.i = select i1 %44, i1 true, i1 %.not36.i
  br i1 %or.cond38.i, label %45, label %cff_parse_integer.exit

45:                                               ; preds = %42
  %46 = load i8, ptr %28, align 1
  %47 = zext i8 %46 to i64
  %48 = shl nuw nsw i64 %47, 24
  %49 = getelementptr inbounds i8, ptr %.0.val, i64 2
  %50 = load i8, ptr %49, align 1
  %51 = zext i8 %50 to i64
  %52 = shl nuw nsw i64 %51, 16
  %53 = or disjoint i64 %52, %48
  %54 = getelementptr inbounds i8, ptr %.0.val, i64 3
  %55 = load i8, ptr %54, align 1
  %56 = zext i8 %55 to i64
  %57 = shl nuw nsw i64 %56, 8
  %58 = or disjoint i64 %53, %57
  %59 = getelementptr inbounds i8, ptr %.0.val, i64 4
  %60 = load i8, ptr %59, align 1
  %61 = zext i8 %60 to i64
  %62 = or disjoint i64 %58, %61
  br label %cff_parse_integer.exit

63:                                               ; preds = %25
  %64 = icmp ult i8 %2, -9
  br i1 %64, label %65, label %68

65:                                               ; preds = %63
  %66 = add nsw i32 %29, -139
  %67 = sext i32 %66 to i64
  br label %cff_parse_integer.exit

68:                                               ; preds = %63
  %69 = icmp ult i8 %2, -5
  %70 = getelementptr inbounds i8, ptr %.0.val, i64 2
  %71 = icmp ule ptr %70, %27
  %.not35.i = icmp ugt ptr %28, %27
  %or.cond39.i = select i1 %71, i1 true, i1 %.not35.i
  br i1 %69, label %72, label %80

72:                                               ; preds = %68
  br i1 %or.cond39.i, label %73, label %cff_parse_integer.exit

73:                                               ; preds = %72
  %74 = shl nuw nsw i32 %29, 8
  %75 = load i8, ptr %28, align 1
  %76 = zext i8 %75 to i32
  %77 = add nsw i32 %74, -63124
  %78 = add nuw nsw i32 %77, %76
  %79 = zext nneg i32 %78 to i64
  br label %cff_parse_integer.exit

80:                                               ; preds = %68
  br i1 %or.cond39.i, label %81, label %cff_parse_integer.exit

81:                                               ; preds = %80
  %82 = shl nuw nsw i32 %29, 8
  %83 = load i8, ptr %28, align 1
  %84 = zext i8 %83 to i32
  %85 = or disjoint i32 %82, %84
  %86 = sub nsw i32 64148, %85
  %87 = sext i32 %86 to i64
  br label %cff_parse_integer.exit

cff_parse_integer.exit:                           ; preds = %81, %80, %73, %72, %65, %45, %42, %33, %30, %8, %3
  %.0 = phi i64 [ %7, %3 ], [ %24, %8 ], [ %41, %33 ], [ %62, %45 ], [ %67, %65 ], [ %79, %73 ], [ %87, %81 ], [ 0, %80 ], [ 0, %72 ], [ 0, %42 ], [ 0, %30 ]
  ret i64 %.0
}